target datalayout = "e-m:e-p270:32:32-p271:32:32-p272:64:64-i64:64-i128:128-f80:128-n8:16:32:64-S128"
target triple = "x86_64-pc-linux-gnu"

%"class.std::shared_ptr" = type { %"class.std::__shared_ptr" }
%"class.std::__shared_ptr" = type { ptr, %"class.std::__shared_count" }
%"class.std::__shared_count" = type { ptr }
%"class.open_spiel::leduc_poker::LeducState" = type <{ %"class.open_spiel::State.base", i32, i32, i32, i32, i32, i32, i32, i32, i32, i32, i32, %"class.std::vector.9", %"class.std::vector.13", %"class.std::vector.13", %"class.std::vector.18", %"class.std::vector.13", %"class.std::vector.9", %"class.std::vector.13", %"class.std::vector.13", i8, i8, [6 x i8] }>
%"class.open_spiel::State.base" = type <{ ptr, %"class.std::shared_ptr", i32, i32, %"class.std::vector", i32 }>
%"class.std::vector" = type { %"struct.std::_Vector_base" }
%"struct.std::_Vector_base" = type { %"struct.std::_Vector_base<open_spiel::State::PlayerAction, std::allocator<open_spiel::State::PlayerAction>>::_Vector_impl" }
%"struct.std::_Vector_base<open_spiel::State::PlayerAction, std::allocator<open_spiel::State::PlayerAction>>::_Vector_impl" = type { %"struct.std::_Vector_base<open_spiel::State::PlayerAction, std::allocator<open_spiel::State::PlayerAction>>::_Vector_impl_data" }
%"struct.std::_Vector_base<open_spiel::State::PlayerAction, std::allocator<open_spiel::State::PlayerAction>>::_Vector_impl_data" = type { ptr, ptr, ptr }
%"class.std::vector.18" = type { %"struct.std::_Vector_base.19" }
%"struct.std::_Vector_base.19" = type { %"struct.std::_Vector_base<double, std::allocator<double>>::_Vector_impl" }
%"struct.std::_Vector_base<double, std::allocator<double>>::_Vector_impl" = type { %"struct.std::_Vector_base<double, std::allocator<double>>::_Vector_impl_data" }
%"struct.std::_Vector_base<double, std::allocator<double>>::_Vector_impl_data" = type { ptr, ptr, ptr }
%"class.std::vector.9" = type { %"struct.std::_Bvector_base" }
%"struct.std::_Bvector_base" = type { %"struct.std::_Bvector_base<std::allocator<bool>>::_Bvector_impl" }
%"struct.std::_Bvector_base<std::allocator<bool>>::_Bvector_impl" = type { %"struct.std::_Bvector_base<std::allocator<bool>>::_Bvector_impl_data" }
%"struct.std::_Bvector_base<std::allocator<bool>>::_Bvector_impl_data" = type { %"struct.std::_Bit_iterator", %"struct.std::_Bit_iterator", ptr }
%"struct.std::_Bit_iterator" = type { %"struct.std::_Bit_iterator_base.base", [4 x i8] }
%"struct.std::_Bit_iterator_base.base" = type <{ ptr, i32 }>
%"class.std::vector.13" = type { %"struct.std::_Vector_base.14" }
%"struct.std::_Vector_base.14" = type { %"struct.std::_Vector_base<int, std::allocator<int>>::_Vector_impl" }
%"struct.std::_Vector_base<int, std::allocator<int>>::_Vector_impl" = type { %"struct.std::_Vector_base<int, std::allocator<int>>::_Vector_impl_data" }
%"struct.std::_Vector_base<int, std::allocator<int>>::_Vector_impl_data" = type { ptr, ptr, ptr }

; Function Attrs: mustprogress nounwind uwtable
define linkonce_odr noundef i64 @_ZNKSt6vectorIiSaIiEE4sizeEv(ptr noundef nonnull align 8 dereferenceable(24) %0) #5 comdat align 2 {
  %2 = alloca ptr, align 8
  store ptr %0, ptr %2, align 8
  %3 = load ptr, ptr %2, align 8
  %4 = getelementptr inbounds nuw %"struct.std::_Vector_base.14", ptr %3, i32 0, i32 0
  %5 = getelementptr inbounds nuw %"struct.std::_Vector_base<int, std::allocator<int>>::_Vector_impl_data", ptr %4, i32 0, i32 1
  %6 = load ptr, ptr %5, align 8
  %7 = getelementptr inbounds nuw %"struct.std::_Vector_base.14", ptr %3, i32 0, i32 0
  %8 = getelementptr inbounds nuw %"struct.std::_Vector_base<int, std::allocator<int>>::_Vector_impl_data", ptr %7, i32 0, i32 0
  %9 = load ptr, ptr %8, align 8
  %10 = ptrtoint ptr %6 to i64
  %11 = ptrtoint ptr %9 to i64
  %12 = sub i64 %10, %11
  %13 = sdiv exact i64 %12, 4
  ret i64 %13
}

; Function Attrs: mustprogress nounwind uwtable
define linkonce_odr void @_ZSt4swapIiENSt9enable_ifIXsr6__and_ISt6__not_ISt15__is_tuple_likeIT_EESt21is_move_constructibleIS3_ESt18is_move_assignableIS3_EEE5valueEvE4typeERS3_SC_(ptr noundef nonnull align 4 dereferenceable(4) %0, ptr noundef nonnull align 4 dereferenceable(4) %1) #5 comdat {
  %3 = alloca ptr, align 8
  %4 = alloca ptr, align 8
  %5 = alloca i32, align 4
  store ptr %0, ptr %3, align 8
  store ptr %1, ptr %4, align 8
  %6 = load ptr, ptr %3, align 8
  %7 = load i32, ptr %6, align 4
  store i32 %7, ptr %5, align 4
  %8 = load ptr, ptr %4, align 8
  %9 = load i32, ptr %8, align 4
  %10 = load ptr, ptr %3, align 8
  store i32 %9, ptr %10, align 4
  %11 = load i32, ptr %5, align 4
  %12 = load ptr, ptr %4, align 8
  store i32 %11, ptr %12, align 4
  ret void
}

; Function Attrs: mustprogress nounwind uwtable
define linkonce_odr noundef nonnull align 4 dereferenceable(4) ptr @_ZNKSt6vectorIiSaIiEEixEm(ptr noundef nonnull align 8 dereferenceable(24) %0, i64 noundef %1) #5 comdat align 2 {
  %3 = alloca ptr, align 8
  %4 = alloca i64, align 8
  store ptr %0, ptr %3, align 8
  store i64 %1, ptr %4, align 8
  %5 = load ptr, ptr %3, align 8
  %6 = getelementptr inbounds nuw %"struct.std::_Vector_base.14", ptr %5, i32 0, i32 0
  %7 = getelementptr inbounds nuw %"struct.std::_Vector_base<int, std::allocator<int>>::_Vector_impl_data", ptr %6, i32 0, i32 0
  %8 = load ptr, ptr %7, align 8
  %9 = load i64, ptr %4, align 8
  %10 = getelementptr inbounds i32, ptr %8, i64 %9
  ret ptr %10
}

; Function Attrs: mustprogress nounwind uwtable
define noundef i32 @_ZNK10open_spiel11leduc_poker10LeducState8RankHandEi(ptr noundef nonnull align 8 dereferenceable(330) %0, i32 noundef %1) #5 align 2 {
  %3 = alloca i32, align 4
  %4 = alloca ptr, align 8
  %5 = alloca i32, align 4
  %6 = alloca [2 x i32], align 4
  %7 = alloca i32, align 4
  %8 = alloca i32, align 4
  store ptr %0, ptr %4, align 8
  store i32 %1, ptr %5, align 4
  %9 = load ptr, ptr %4, align 8
  %10 = getelementptr inbounds nuw %"class.open_spiel::leduc_poker::LeducState", ptr %9, i32 0, i32 8
  %11 = load i32, ptr %10, align 8
  store i32 %11, ptr %6, align 4
  %12 = getelementptr inbounds i32, ptr %6, i64 1
  %13 = getelementptr inbounds nuw %"class.open_spiel::leduc_poker::LeducState", ptr %9, i32 0, i32 13
  %14 = load i32, ptr %5, align 4
  %15 = sext i32 %14 to i64
  %16 = call noundef nonnull align 4 dereferenceable(4) ptr @_ZNKSt6vectorIiSaIiEEixEm(ptr noundef nonnull align 8 dereferenceable(24) %13, i64 noundef %15) #3
  %17 = load i32, ptr %16, align 4
  store i32 %17, ptr %12, align 4
  %18 = getelementptr inbounds [2 x i32], ptr %6, i64 0, i64 0
  %19 = load i32, ptr %18, align 4
  %20 = getelementptr inbounds [2 x i32], ptr %6, i64 0, i64 1
  %21 = load i32, ptr %20, align 4
  %22 = icmp sgt i32 %19, %21
  br i1 %22, label %23, label %26

23:                                               ; preds = %2
  %24 = getelementptr inbounds [2 x i32], ptr %6, i64 0, i64 0
  %25 = getelementptr inbounds [2 x i32], ptr %6, i64 0, i64 1
  call void @_ZSt4swapIiENSt9enable_ifIXsr6__and_ISt6__not_ISt15__is_tuple_likeIT_EESt21is_move_constructibleIS3_ESt18is_move_assignableIS3_EEE5valueEvE4typeERS3_SC_(ptr noundef nonnull align 4 dereferenceable(4) %24, ptr noundef nonnull align 4 dereferenceable(4) %25) #3
  br label %26

26:                                               ; preds = %23, %2
  %27 = getelementptr inbounds nuw %"class.open_spiel::leduc_poker::LeducState", ptr %9, i32 0, i32 21
  %28 = load i8, ptr %27, align 1
  %29 = trunc i8 %28 to i1
  br i1 %29, label %30, label %55

30:                                               ; preds = %26
  %31 = getelementptr inbounds nuw %"class.open_spiel::leduc_poker::LeducState", ptr %9, i32 0, i32 14
  %32 = call noundef i64 @_ZNKSt6vectorIiSaIiEE4sizeEv(ptr noundef nonnull align 8 dereferenceable(24) %31) #3
  %33 = udiv i64 %32, 2
  %34 = trunc i64 %33 to i32
  store i32 %34, ptr %7, align 4
  %35 = getelementptr inbounds [2 x i32], ptr %6, i64 0, i64 0
  %36 = load i32, ptr %35, align 4
  %37 = getelementptr inbounds [2 x i32], ptr %6, i64 0, i64 1
  %38 = load i32, ptr %37, align 4
  %39 = icmp eq i32 %36, %38
  br i1 %39, label %40, label %47

40:                                               ; preds = %30
  %41 = load i32, ptr %7, align 4
  %42 = load i32, ptr %7, align 4
  %43 = mul nsw i32 %41, %42
  %44 = getelementptr inbounds [2 x i32], ptr %6, i64 0, i64 0
  %45 = load i32, ptr %44, align 4
  %46 = add nsw i32 %43, %45
  store i32 %46, ptr %3, align 4
  br label %87

47:                                               ; preds = %30
  %48 = getelementptr inbounds [2 x i32], ptr %6, i64 0, i64 1
  %49 = load i32, ptr %48, align 4
  %50 = load i32, ptr %7, align 4
  %51 = mul nsw i32 %49, %50
  %52 = getelementptr inbounds [2 x i32], ptr %6, i64 0, i64 0
  %53 = load i32, ptr %52, align 4
  %54 = add nsw i32 %51, %53
  store i32 %54, ptr %3, align 4
  br label %87

55:                                               ; preds = %26
  %56 = getelementptr inbounds nuw %"class.open_spiel::leduc_poker::LeducState", ptr %9, i32 0, i32 14
  %57 = call noundef i64 @_ZNKSt6vectorIiSaIiEE4sizeEv(ptr noundef nonnull align 8 dereferenceable(24) %56) #3
  %58 = trunc i64 %57 to i32
  store i32 %58, ptr %8, align 4
  %59 = getelementptr inbounds [2 x i32], ptr %6, i64 0, i64 0
  %60 = load i32, ptr %59, align 4
  %61 = srem i32 %60, 2
  %62 = icmp eq i32 %61, 0
  br i1 %62, label %63, label %77

63:                                               ; preds = %55
  %64 = getelementptr inbounds [2 x i32], ptr %6, i64 0, i64 1
  %65 = load i32, ptr %64, align 4
  %66 = getelementptr inbounds [2 x i32], ptr %6, i64 0, i64 0
  %67 = load i32, ptr %66, align 4
  %68 = add nsw i32 %67, 1
  %69 = icmp eq i32 %65, %68
  br i1 %69, label %70, label %77

70:                                               ; preds = %63
  %71 = load i32, ptr %8, align 4
  %72 = load i32, ptr %8, align 4
  %73 = mul nsw i32 %71, %72
  %74 = getelementptr inbounds [2 x i32], ptr %6, i64 0, i64 0
  %75 = load i32, ptr %74, align 4
  %76 = add nsw i32 %73, %75
  store i32 %76, ptr %3, align 4
  br label %87

77:                                               ; preds = %63, %55
  %78 = getelementptr inbounds [2 x i32], ptr %6, i64 0, i64 1
  %79 = load i32, ptr %78, align 4
  %80 = sdiv i32 %79, 2
  %81 = load i32, ptr %8, align 4
  %82 = mul nsw i32 %80, %81
  %83 = getelementptr inbounds [2 x i32], ptr %6, i64 0, i64 0
  %84 = load i32, ptr %83, align 4
  %85 = sdiv i32 %84, 2
  %86 = add nsw i32 %82, %85
  store i32 %86, ptr %3, align 4
  br label %87

87:                                               ; preds = %77, %70, %47, %40
  %88 = load i32, ptr %3, align 4
  ret i32 %88
}