; Function Attrs: mustprogress nofree norecurse nosync nounwind willreturn memory(read, inaccessiblemem: none) uwtable
define noundef i32 @_ZNK10open_spiel11leduc_poker10LeducState8RankHandEi(ptr nocapture noundef nonnull readonly align 8 dereferenceable(330) %0, i32 noundef %1) local_unnamed_addr #12 align 2 {
  %3 = getelementptr inbounds nuw i8, ptr %0, i64 88
  %4 = load i32, ptr %3, align 8
  %5 = getelementptr inbounds nuw i8, ptr %0, i64 144
  %6 = sext i32 %1 to i64
  %7 = load ptr, ptr %5, align 8
  %8 = getelementptr inbounds i32, ptr %7, i64 %6
  %9 = load i32, ptr %8, align 4
  %spec.select = tail call i32 @llvm.smax.i32(i32 %4, i32 %9)
  %spec.select17 = tail call i32 @llvm.smin.i32(i32 %4, i32 %9)
  %10 = getelementptr inbounds nuw i8, ptr %0, i64 329
  %11 = load i8, ptr %10, align 1
  %12 = trunc i8 %11 to i1
  %13 = getelementptr inbounds nuw i8, ptr %0, i64 168
  %14 = getelementptr inbounds i8, ptr %0, i64 176
  %15 = load ptr, ptr %14, align 8
  %16 = load ptr, ptr %13, align 8
  %17 = ptrtoint ptr %15 to i64
  %18 = ptrtoint ptr %16 to i64
  %19 = sub i64 %17, %18
  br i1 %12, label %20, label %30

20:                                               ; preds = %2
  %21 = lshr i64 %19, 3
  %22 = trunc i64 %21 to i32
  %23 = icmp eq i32 %4, %9
  br i1 %23, label %24, label %27

24:                                               ; preds = %20
  %25 = mul nsw i32 %22, %22
  %26 = add nsw i32 %25, %spec.select17
  br label %45

27:                                               ; preds = %20
  %28 = mul nsw i32 %spec.select, %22
  %29 = add nsw i32 %28, %spec.select17
  br label %45

30:                                               ; preds = %2
  %31 = lshr exact i64 %19, 2
  %32 = trunc i64 %31 to i32
  %33 = and i32 %spec.select17, 1
  %34 = icmp eq i32 %33, 0
  %35 = or disjoint i32 %spec.select17, 1
  %36 = icmp eq i32 %spec.select, %35
  %or.cond = select i1 %34, i1 %36, i1 false
  br i1 %or.cond, label %37, label %40

37:                                               ; preds = %30
  %38 = mul nsw i32 %32, %32
  %39 = add nsw i32 %38, %spec.select17
  br label %45

40:                                               ; preds = %30
  %41 = sdiv i32 %spec.select, 2
  %42 = mul nsw i32 %41, %32
  %43 = sdiv i32 %spec.select17, 2
  %44 = add nsw i32 %42, %43
  br label %45

45:                                               ; preds = %40, %37, %27, %24
  %.0 = phi i32 [ %26, %24 ], [ %29, %27 ], [ %39, %37 ], [ %44, %40 ]
  ret i32 %.0
}